(lp0
(lp1
S''
p2
aS'  ## '
p3
aS' #  #'
p4
aS' #  #'
p5
aS' ####'
p6
aS' #  #'
p7
aS' #  #'
p8
aS' #  #'
p9
ag2
ag2
aa(lp10
g2
aS' ### '
p11
aS' #  #'
p12
aS' #  #'
p13
aS' ####'
p14
aS' #  #'
p15
aS' #  #'
p16
aS' ### '
p17
ag2
ag2
aa(lp18
g2
aS'  ## '
p19
aS' #  #'
p20
aS' #   '
p21
aS' #   '
p22
aS' #   '
p23
aS' #  #'
p24
aS'  ## '
p25
ag2
ag2
aa(lp26
g2
aS' ### '
p27
aS' #  #'
p28
aS' #  #'
p29
aS' #  #'
p30
aS' #  #'
p31
aS' #  #'
p32
aS' ### '
p33
ag2
ag2
aa(lp34
g2
aS' ####'
p35
aS' #   '
p36
aS' #   '
p37
aS' ### '
p38
aS' #   '
p39
aS' #   '
p40
aS' ####'
p41
ag2
ag2
aa(lp42
g2
aS' ####'
p43
aS' #   '
p44
aS' #   '
p45
aS' ### '
p46
aS' #   '
p47
aS' #   '
p48
aS' #   '
p49
ag2
ag2
aa(lp50
g2
aS'  ## '
p51
aS' #  #'
p52
aS' #   '
p53
aS' #   '
p54
aS' # ##'
p55
aS' #  #'
p56
aS'  ## '
p57
ag2
ag2
aa(lp58
g2
aS' #  #'
p59
aS' #  #'
p60
aS' #  #'
p61
aS' ####'
p62
aS' #  #'
p63
aS' #  #'
p64
aS' #  #'
p65
ag2
ag2
aa(lp66
g2
aS'  # '
p67
aS'  # '
p68
aS'  # '
p69
aS'  # '
p70
aS'  # '
p71
aS'  # '
p72
aS'  # '
p73
ag2
ag2
aa(lp74
g2
aS' ####'
p75
aS'   # '
p76
aS'   # '
p77
aS'   # '
p78
aS'   # '
p79
aS'   # '
p80
aS' ##  '
p81
ag2
ag2
aa(lp82
g2
aS' #   '
p83
aS' #  #'
p84
aS' # # '
p85
aS' ##  '
p86
aS' ##  '
p87
aS' # # '
p88
aS' #  #'
p89
ag2
ag2
aa(lp90
g2
aS' #   '
p91
aS' #   '
p92
aS' #   '
p93
aS' #   '
p94
aS' #   '
p95
aS' #   '
p96
aS' ####'
p97
ag2
ag2
aa(lp98
g2
aS' #   #'
p99
aS' ## ##'
p100
aS' # # #'
p101
aS' # # #'
p102
aS' #   #'
p103
aS' #   #'
p104
aS' #   #'
p105
ag2
ag2
aa(lp106
g2
aS' #   #'
p107
aS' ##  #'
p108
aS' ##  #'
p109
aS' # # #'
p110
aS' #  ##'
p111
aS' #  ##'
p112
aS' #   #'
p113
ag2
ag2
aa(lp114
g2
aS'  ## '
p115
aS' #  #'
p116
aS' #  #'
p117
aS' #  #'
p118
aS' #  #'
p119
aS' #  #'
p120
aS'  ## '
p121
ag2
ag2
aa(lp122
g2
aS' ### '
p123
aS' #  #'
p124
aS' #  #'
p125
aS' ### '
p126
aS' #   '
p127
aS' #   '
p128
aS' #   '
p129
ag2
ag2
aa(lp130
g2
aS'  ## '
p131
aS' #  #'
p132
aS' #  #'
p133
aS' #  #'
p134
aS' #  #'
p135
aS' # ##'
p136
aS'  # #'
p137
ag2
ag2
aa(lp138
g2
aS' ### '
p139
aS' #  #'
p140
aS' #  #'
p141
aS' ### '
p142
aS' # # '
p143
aS' #  #'
p144
aS' #  #'
p145
ag2
ag2
aa(lp146
g2
aS'  ###'
p147
aS' #   '
p148
aS' #   '
p149
aS'  ## '
p150
aS'    #'
p151
aS'    #'
p152
aS' ### '
p153
ag2
ag2
aa(lp154
g2
aS' ###'
p155
aS'  # '
p156
aS'  # '
p157
aS'  # '
p158
aS'  # '
p159
aS'  # '
p160
aS'  # '
p161
ag2
ag2
aa(lp162
g2
aS' #  #'
p163
aS' #  #'
p164
aS' #  #'
p165
aS' #  #'
p166
aS' #  #'
p167
aS' #  #'
p168
aS'  ## '
p169
ag2
ag2
aa(lp170
g2
aS' #   #'
p171
aS' #   #'
p172
aS' #   #'
p173
aS' #   #'
p174
aS' #   #'
p175
aS'  # # '
p176
aS'   #  '
p177
ag2
ag2
aa(lp178
g2
aS' #  #  #'
p179
aS' #  #  #'
p180
aS' #  #  #'
p181
aS' #  #  #'
p182
aS' #  #  #'
p183
aS' #  #  #'
p184
aS'  ## ## '
p185
ag2
ag2
aa(lp186
g2
aS'      '
p187
aS' #   #'
p188
aS'  # # '
p189
aS'   #  '
p190
aS'   #  '
p191
aS'  # # '
p192
aS' #   #'
p193
ag2
ag2
aa(lp194
g2
aS' #   #'
p195
aS'  # # '
p196
aS'   #  '
p197
aS'   #  '
p198
aS'   #  '
p199
aS'   #  '
p200
aS'   #  '
p201
ag2
ag2
aa(lp202
g2
aS' #####'
p203
aS'     #'
p204
aS'    # '
p205
aS'   #  '
p206
aS'  #   '
p207
aS' #    '
p208
aS' #####'
p209
ag2
ag2
aa.